; Function Attrs: nounwind uwtable
define i32 @EVP_PKEY_missing_parameters(ptr noundef %0) local_unnamed_addr #0 {
  %.not = icmp eq ptr %0, null
  br i1 %.not, label %16, label %2

2:                                                ; preds = %1
  %3 = getelementptr inbounds nuw i8, ptr %0, i64 96
  %4 = load ptr, ptr %3, align 8, !tbaa !30
  %.not10 = icmp eq ptr %4, null
  br i1 %.not10, label %8, label %5

5:                                                ; preds = %2
  %6 = tail call i32 @evp_keymgmt_util_has(ptr noundef nonnull %0, i32 noundef 4) #12
  %.not13 = icmp eq i32 %6, 0
  %7 = zext i1 %.not13 to i32
  br label %16

8:                                                ; preds = %2
  %9 = getelementptr inbounds nuw i8, ptr %0, i64 8
  %10 = load ptr, ptr %9, align 8, !tbaa !20
  %.not11 = icmp eq ptr %10, null
  br i1 %.not11, label %16, label %11

11:                                               ; preds = %8
  %12 = getelementptr inbounds nuw i8, ptr %10, i64 128
  %13 = load ptr, ptr %12, align 8, !tbaa !31
  %.not12 = icmp eq ptr %13, null
  br i1 %.not12, label %16, label %14

14:                                               ; preds = %11
  %15 = tail call i32 %13(ptr noundef nonnull %0) #12
  br label %16

16:                                               ; preds = %1, %11, %8, %14, %5
  %.0 = phi i32 [ %7, %5 ], [ %15, %14 ], [ 0, %8 ], [ 0, %11 ], [ 0, %1 ]
  ret i32 %.0
}